; Function Attrs: nounwind uwtable
define dso_local i64 @WinGetFuncArgCurrent(ptr noundef readonly captures(none) %0, i32 noundef %1, ptr noundef %2) local_unnamed_addr #0 {
  %4 = getelementptr inbounds nuw i8, ptr %0, i64 8
  %5 = load ptr, ptr %4, align 8
  %6 = getelementptr inbounds nuw i8, ptr %5, i64 128
  %7 = load ptr, ptr %6, align 8
  %8 = getelementptr inbounds nuw i8, ptr %5, i64 216
  %9 = load ptr, ptr %8, align 8
  %10 = getelementptr inbounds nuw i8, ptr %7, i64 24
  store ptr %9, ptr %10, align 8
  %11 = getelementptr inbounds nuw i8, ptr %0, i64 16
  %12 = load ptr, ptr %11, align 8
  %13 = getelementptr i8, ptr %12, i64 16
  %.val = load ptr, ptr %13, align 8
  %14 = sext i32 %1 to i64
  %15 = getelementptr inbounds %union.ListCell, ptr %.val, i64 %14
  %16 = load ptr, ptr %15, align 8
  %17 = getelementptr inbounds nuw i8, ptr %16, i64 32
  %18 = load ptr, ptr %17, align 8
  %19 = tail call i64 %18(ptr noundef %16, ptr noundef %7, ptr noundef %2) #9
  ret i64 %19
}